(ikeras_frcnn.config
Config
p0
(dp1
S'use_vertical_flips'
p2
I00
sS'rpn_max_overlap'
p3
F0.7
sS'verbose'
p4
I01
sS'num_rois'
p5
I32
sS'img_channel_mean'
p6
(lp7
F103.939
aF116.779
aF123.68
asS'anchor_box_scales'
p8
(lp9
I128
aI256
aI512
asS'anchor_box_ratios'
p10
(lp11
(lp12
I1
aI1
aa(lp13
F0.7071067811865475
aF1.414213562373095
aa(lp14
F1.414213562373095
aF0.7071067811865475
aasS'rpn_min_overlap'
p15
F0.3
sS'rot_90'
p16
I00
sS'class_mapping'
p17
(dp18
I0
S'car'
p19
sI1
S'person'
p20
sI2
S'bird'
p21
sI3
S'motorbike'
p22
sI4
S'sheep'
p23
sI5
S'train'
p24
sI6
S'cat'
p25
sI7
S'dog'
p26
sI8
S'chair'
p27
sI9
S'pottedplant'
p28
sI10
S'diningtable'
p29
sI11
S'tvmonitor'
p30
sI12
S'sofa'
p31
sI13
S'boat'
p32
sI14
S'bottle'
p33
sI15
S'aeroplane'
p34
sI16
S'horse'
p35
sI17
S'cow'
p36
sI18
S'bicycle'
p37
sI19
S'bus'
p38
sI20
S'bg'
p39
ssS'im_size'
p40
I600
sS'balanced_classes'
p41
I00
sS'classifier_min_overlap'
p42
F0.1
sS'img_scaling_factor'
p43
F1.0
sS'classifier_regr_std'
p44
(lp45
F8.0
aF8.0
aF4.0
aF4.0
asS'model_path'
p46
S'model_frcnn.vgg.hdf5'
p47
sS'classifier_max_overlap'
p48
F0.5
sS'std_scaling'
p49
F4.0
sS'use_horizontal_flips'
p50
I00
sS'rpn_stride'
p51
I16
sS'network'
p52
S'resnet50'
p53
sb.